target datalayout = "e-m:e-p270:32:32-p271:32:32-p272:64:64-i64:64-i128:128-f80:128-n8:16:32:64-S128"
target triple = "x86_64-pc-linux-gnu"

%struct.htbl_t = type { i64, i64, i64, i64 }

@H5PT_ptable_id_type = internal global i32 -2, align 4
@H5PT_ptable_count = internal global i64 0, align 8

; Function Attrs: nounwind uwtable
define internal i32 @H5PT_create_index(ptr noundef %0) #0 {
  %2 = alloca i32, align 4
  %3 = alloca ptr, align 8
  store ptr %0, ptr %3, align 8, !tbaa !10
  %4 = load ptr, ptr %3, align 8, !tbaa !10
  %5 = icmp ne ptr %4, null
  br i1 %5, label %6, label %9

6:                                                ; preds = %1
  %7 = load ptr, ptr %3, align 8, !tbaa !10
  %8 = getelementptr inbounds nuw %struct.htbl_t, ptr %7, i32 0, i32 2
  store i64 0, ptr %8, align 8, !tbaa !21
  store i32 0, ptr %2, align 4
  br label %10

9:                                                ; preds = %1
  store i32 -1, ptr %2, align 4
  br label %10

10:                                               ; preds = %9, %6
  %11 = load i32, ptr %2, align 4
  ret i32 %11
}

; Function Attrs: nounwind uwtable
define i64 @H5PTopen(i64 noundef %0, ptr noundef %1) #0 {
  %3 = alloca i64, align 8
  %4 = alloca i64, align 8
  %5 = alloca ptr, align 8
  %6 = alloca i64, align 8
  %7 = alloca i64, align 8
  %8 = alloca ptr, align 8
  %9 = alloca [1 x i64], align 8
  %10 = alloca i64, align 8
  %11 = alloca i32, align 4
  store i64 %0, ptr %4, align 8, !tbaa !3
  store ptr %1, ptr %5, align 8, !tbaa !7
  call void @llvm.lifetime.start.p0(i64 8, ptr %6) #6
  store i64 -1, ptr %6, align 8, !tbaa !3
  call void @llvm.lifetime.start.p0(i64 8, ptr %7) #6
  store i64 -1, ptr %7, align 8, !tbaa !3
  call void @llvm.lifetime.start.p0(i64 8, ptr %8) #6
  store ptr null, ptr %8, align 8, !tbaa !10
  call void @llvm.lifetime.start.p0(i64 8, ptr %9) #6
  call void @llvm.lifetime.start.p0(i64 8, ptr %10) #6
  store i64 -1, ptr %10, align 8, !tbaa !3
  %12 = load ptr, ptr %5, align 8, !tbaa !7
  %13 = icmp eq ptr %12, null
  br i1 %13, label %14, label %15

14:                                               ; preds = %2
  br label %100

15:                                               ; preds = %2
  %16 = load i32, ptr @H5PT_ptable_id_type, align 4, !tbaa !11
  %17 = icmp slt i32 %16, 0
  br i1 %17, label %18, label %23

18:                                               ; preds = %15
  %19 = call i32 @H5Iregister_type2(i32 noundef 0, ptr noundef @H5PT_free_id)
  store i32 %19, ptr @H5PT_ptable_id_type, align 4, !tbaa !11
  %20 = icmp slt i32 %19, 0
  br i1 %20, label %21, label %22

21:                                               ; preds = %18
  br label %100

22:                                               ; preds = %18
  br label %23

23:                                               ; preds = %22, %15
  %24 = call noalias ptr @malloc(i64 noundef 32) #7
  store ptr %24, ptr %8, align 8, !tbaa !10
  %25 = load ptr, ptr %8, align 8, !tbaa !10
  %26 = icmp eq ptr %25, null
  br i1 %26, label %27, label %28

27:                                               ; preds = %23
  br label %100

28:                                               ; preds = %23
  %29 = load ptr, ptr %8, align 8, !tbaa !10
  %30 = getelementptr inbounds nuw %struct.htbl_t, ptr %29, i32 0, i32 0
  store i64 -1, ptr %30, align 8, !tbaa !13
  %31 = load ptr, ptr %8, align 8, !tbaa !10
  %32 = getelementptr inbounds nuw %struct.htbl_t, ptr %31, i32 0, i32 1
  store i64 -1, ptr %32, align 8, !tbaa !15
  %33 = load i64, ptr %4, align 8, !tbaa !3
  %34 = load ptr, ptr %5, align 8, !tbaa !7
  %35 = call i64 @H5Dopen2(i64 noundef %33, ptr noundef %34, i64 noundef 0)
  %36 = load ptr, ptr %8, align 8, !tbaa !10
  %37 = getelementptr inbounds nuw %struct.htbl_t, ptr %36, i32 0, i32 0
  store i64 %35, ptr %37, align 8, !tbaa !13
  %38 = icmp slt i64 %35, 0
  br i1 %38, label %39, label %40

39:                                               ; preds = %28
  br label %100

40:                                               ; preds = %28
  %41 = load ptr, ptr %8, align 8, !tbaa !10
  %42 = getelementptr inbounds nuw %struct.htbl_t, ptr %41, i32 0, i32 0
  %43 = load i64, ptr %42, align 8, !tbaa !13
  %44 = call i64 @H5Dget_type(i64 noundef %43)
  store i64 %44, ptr %6, align 8, !tbaa !3
  %45 = icmp slt i64 %44, 0
  br i1 %45, label %46, label %47

46:                                               ; preds = %40
  br label %100

47:                                               ; preds = %40
  %48 = load i64, ptr %6, align 8, !tbaa !3
  %49 = call i64 @H5Tcopy(i64 noundef %48)
  %50 = load ptr, ptr %8, align 8, !tbaa !10
  %51 = getelementptr inbounds nuw %struct.htbl_t, ptr %50, i32 0, i32 1
  store i64 %49, ptr %51, align 8, !tbaa !15
  %52 = icmp slt i64 %49, 0
  br i1 %52, label %53, label %54

53:                                               ; preds = %47
  br label %100

54:                                               ; preds = %47
  %55 = load i64, ptr %6, align 8, !tbaa !3
  %56 = call i32 @H5Tclose(i64 noundef %55)
  %57 = icmp slt i32 %56, 0
  br i1 %57, label %58, label %59

58:                                               ; preds = %54
  br label %100

59:                                               ; preds = %54
  store i64 -1, ptr %6, align 8, !tbaa !3
  %60 = load ptr, ptr %8, align 8, !tbaa !10
  %61 = call i32 @H5PT_create_index(ptr noundef %60)
  %62 = icmp slt i32 %61, 0
  br i1 %62, label %63, label %64

63:                                               ; preds = %59
  br label %100

64:                                               ; preds = %59
  %65 = load ptr, ptr %8, align 8, !tbaa !10
  %66 = getelementptr inbounds nuw %struct.htbl_t, ptr %65, i32 0, i32 0
  %67 = load i64, ptr %66, align 8, !tbaa !13
  %68 = call i64 @H5Dget_space(i64 noundef %67)
  store i64 %68, ptr %7, align 8, !tbaa !3
  %69 = icmp slt i64 %68, 0
  br i1 %69, label %70, label %71

70:                                               ; preds = %64
  br label %100

71:                                               ; preds = %64
  %72 = load i64, ptr %7, align 8, !tbaa !3
  %73 = getelementptr inbounds [1 x i64], ptr %9, i64 0, i64 0
  %74 = call i32 @H5Sget_simple_extent_dims(i64 noundef %72, ptr noundef %73, ptr noundef null)
  %75 = icmp slt i32 %74, 0
  br i1 %75, label %76, label %77

76:                                               ; preds = %71
  br label %100

77:                                               ; preds = %71
  %78 = load i64, ptr %7, align 8, !tbaa !3
  %79 = call i32 @H5Sclose(i64 noundef %78)
  %80 = icmp slt i32 %79, 0
  br i1 %80, label %81, label %82

81:                                               ; preds = %77
  br label %100

82:                                               ; preds = %77
  store i64 -1, ptr %7, align 8, !tbaa !3
  %83 = getelementptr inbounds [1 x i64], ptr %9, i64 0, i64 0
  %84 = load i64, ptr %83, align 8, !tbaa !3
  %85 = load ptr, ptr %8, align 8, !tbaa !10
  %86 = getelementptr inbounds nuw %struct.htbl_t, ptr %85, i32 0, i32 3
  store i64 %84, ptr %86, align 8, !tbaa !20
  %87 = load i32, ptr @H5PT_ptable_id_type, align 4, !tbaa !11
  %88 = load ptr, ptr %8, align 8, !tbaa !10
  %89 = call i64 @H5Iregister(i32 noundef %87, ptr noundef %88)
  store i64 %89, ptr %10, align 8, !tbaa !3
  %90 = load i64, ptr %10, align 8, !tbaa !3
  %91 = icmp ne i64 %90, -1
  br i1 %91, label %92, label %95

92:                                               ; preds = %82
  %93 = load i64, ptr @H5PT_ptable_count, align 8, !tbaa !3
  %94 = add i64 %93, 1
  store i64 %94, ptr @H5PT_ptable_count, align 8, !tbaa !3
  br label %98

95:                                               ; preds = %82
  %96 = load ptr, ptr %8, align 8, !tbaa !10
  %97 = call i32 @H5PT_close(ptr noundef %96)
  br label %98

98:                                               ; preds = %95, %92
  %99 = load i64, ptr %10, align 8, !tbaa !3
  store i64 %99, ptr %3, align 8
  store i32 1, ptr %11, align 4
  br label %139

100:                                              ; preds = %81, %76, %70, %63, %58, %53, %46, %39, %27, %21, %14
  %101 = load i64, ptr %6, align 8, !tbaa !3
  %102 = icmp ne i64 %101, -1
  br i1 %102, label %103, label %106

103:                                              ; preds = %100
  %104 = load i64, ptr %6, align 8, !tbaa !3
  %105 = call i32 @H5Dclose(i64 noundef %104)
  br label %106

106:                                              ; preds = %103, %100
  %107 = load i64, ptr %7, align 8, !tbaa !3
  %108 = icmp ne i64 %107, -1
  br i1 %108, label %109, label %112

109:                                              ; preds = %106
  %110 = load i64, ptr %7, align 8, !tbaa !3
  %111 = call i32 @H5Sclose(i64 noundef %110)
  br label %112

112:                                              ; preds = %109, %106
  %113 = load ptr, ptr %8, align 8, !tbaa !10
  %114 = icmp ne ptr %113, null
  br i1 %114, label %115, label %137

115:                                              ; preds = %112
  %116 = load ptr, ptr %8, align 8, !tbaa !10
  %117 = getelementptr inbounds nuw %struct.htbl_t, ptr %116, i32 0, i32 1
  %118 = load i64, ptr %117, align 8, !tbaa !15
  %119 = icmp ne i64 %118, -1
  br i1 %119, label %120, label %125

120:                                              ; preds = %115
  %121 = load ptr, ptr %8, align 8, !tbaa !10
  %122 = getelementptr inbounds nuw %struct.htbl_t, ptr %121, i32 0, i32 1
  %123 = load i64, ptr %122, align 8, !tbaa !15
  %124 = call i32 @H5Tclose(i64 noundef %123)
  br label %125

125:                                              ; preds = %120, %115
  %126 = load ptr, ptr %8, align 8, !tbaa !10
  %127 = getelementptr inbounds nuw %struct.htbl_t, ptr %126, i32 0, i32 0
  %128 = load i64, ptr %127, align 8, !tbaa !13
  %129 = icmp ne i64 %128, -1
  br i1 %129, label %130, label %135

130:                                              ; preds = %125
  %131 = load ptr, ptr %8, align 8, !tbaa !10
  %132 = getelementptr inbounds nuw %struct.htbl_t, ptr %131, i32 0, i32 0
  %133 = load i64, ptr %132, align 8, !tbaa !13
  %134 = call i32 @H5Dclose(i64 noundef %133)
  br label %135

135:                                              ; preds = %130, %125
  %136 = load ptr, ptr %8, align 8, !tbaa !10
  call void @free(ptr noundef %136) #6
  br label %137

137:                                              ; preds = %135, %112
  %138 = load i64, ptr %10, align 8, !tbaa !3
  store i64 %138, ptr %3, align 8
  store i32 1, ptr %11, align 4
  br label %139

139:                                              ; preds = %137, %98
  call void @llvm.lifetime.end.p0(i64 8, ptr %10) #6
  call void @llvm.lifetime.end.p0(i64 8, ptr %9) #6
  call void @llvm.lifetime.end.p0(i64 8, ptr %8) #6
  call void @llvm.lifetime.end.p0(i64 8, ptr %7) #6
  call void @llvm.lifetime.end.p0(i64 8, ptr %6) #6
  %140 = load i64, ptr %3, align 8
  ret i64 %140
}