; Function Attrs: nounwind uwtable
define i64 @H5PTopen(i64 noundef %0, ptr noundef %1) local_unnamed_addr #0 {
  %3 = alloca [1 x i64], align 8
  call void @llvm.lifetime.start.p0(i64 8, ptr nonnull %3) #7
  %4 = icmp eq ptr %1, null
  br i1 %4, label %.thread87, label %5

5:                                                ; preds = %2
  %6 = load i32, ptr @H5PT_ptable_id_type, align 4, !tbaa !3
  %7 = icmp slt i32 %6, 0
  br i1 %7, label %8, label %11

8:                                                ; preds = %5
  %9 = tail call i32 @H5Iregister_type2(i32 noundef 0, ptr noundef nonnull @H5PT_free_id) #7
  store i32 %9, ptr @H5PT_ptable_id_type, align 4, !tbaa !3
  %10 = icmp slt i32 %9, 0
  br i1 %10, label %.thread87, label %11

11:                                               ; preds = %8, %5
  %12 = tail call noalias dereferenceable_or_null(32) ptr @malloc(i64 noundef 32) #8
  %13 = icmp eq ptr %12, null
  br i1 %13, label %.thread87, label %14

14:                                               ; preds = %11
  %15 = getelementptr inbounds nuw i8, ptr %12, i64 8
  %16 = getelementptr inbounds nuw i8, ptr %12, i64 8
  store i64 -1, ptr %16, align 8
  %17 = tail call i64 @H5Dopen2(i64 noundef %0, ptr noundef nonnull %1, i64 noundef 0) #7
  store i64 %17, ptr %12, align 8, !tbaa !14
  %18 = icmp slt i64 %17, 0
  br i1 %18, label %55, label %19

19:                                               ; preds = %14
  %20 = tail call i64 @H5Dget_type(i64 noundef %17) #7
  %21 = icmp slt i64 %20, 0
  br i1 %21, label %49, label %22

22:                                               ; preds = %19
  %23 = tail call i64 @H5Tcopy(i64 noundef %20) #7
  store i64 %23, ptr %15, align 8, !tbaa !16
  %24 = icmp slt i64 %23, 0
  br i1 %24, label %.thread82, label %25

25:                                               ; preds = %22
  %26 = tail call i32 @H5Tclose(i64 noundef %20) #7
  %27 = icmp slt i32 %26, 0
  br i1 %27, label %.thread82.thread96, label %29

.thread82.thread96:                               ; preds = %25
  %28 = tail call i32 @H5Dclose(i64 noundef %20) #7
  br label %.thread82.thread92

29:                                               ; preds = %25
  %30 = getelementptr inbounds nuw i8, ptr %12, i64 16
  store i64 0, ptr %30, align 8, !tbaa !20
  %31 = tail call i64 @H5Dget_space(i64 noundef %17) #7
  %32 = icmp slt i64 %31, 0
  br i1 %32, label %51, label %33

33:                                               ; preds = %29
  %34 = call i32 @H5Sget_simple_extent_dims(i64 noundef %31, ptr noundef nonnull %3, ptr noundef null) #7
  %35 = icmp slt i32 %34, 0
  br i1 %35, label %.thread75, label %36

36:                                               ; preds = %33
  %37 = call i32 @H5Sclose(i64 noundef %31) #7
  %38 = icmp slt i32 %37, 0
  br i1 %38, label %.thread75, label %39

39:                                               ; preds = %36
  %40 = load i64, ptr %3, align 8, !tbaa !7
  %41 = getelementptr inbounds nuw i8, ptr %12, i64 24
  store i64 %40, ptr %41, align 8, !tbaa !21
  %42 = load i32, ptr @H5PT_ptable_id_type, align 4, !tbaa !3
  %43 = call i64 @H5Iregister(i32 noundef %42, ptr noundef nonnull %12) #7
  %.not = icmp eq i64 %43, -1
  br i1 %.not, label %47, label %44

44:                                               ; preds = %39
  %45 = load i64, ptr @H5PT_ptable_count, align 8, !tbaa !7
  %46 = add i64 %45, 1
  store i64 %46, ptr @H5PT_ptable_count, align 8, !tbaa !7
  br label %.thread87

47:                                               ; preds = %39
  %48 = call fastcc i32 @H5PT_close(ptr noundef %12)
  br label %.thread87

49:                                               ; preds = %19
  %.not43 = icmp eq i64 %20, -1
  br i1 %.not43, label %.thread99, label %.thread82.thread94

.thread82.thread94:                               ; preds = %49
  %50 = tail call i32 @H5Dclose(i64 noundef %20) #7
  br label %.thread99

51:                                               ; preds = %29
  %.not44 = icmp eq i64 %31, -1
  br i1 %.not44, label %.thread82.thread92, label %.thread75

.thread75:                                        ; preds = %33, %36, %51
  %52 = call i32 @H5Sclose(i64 noundef %31) #7
  br label %.thread82.thread92

.thread82:                                        ; preds = %22
  %53 = tail call i32 @H5Dclose(i64 noundef %20) #7
  %.not46 = icmp eq i64 %23, -1
  br i1 %.not46, label %.thread99, label %.thread82.thread92

.thread82.thread92:                               ; preds = %.thread75, %51, %.thread82.thread96, %.thread82
  %54 = call i32 @H5Tclose(i64 noundef %23) #7
  br label %.thread99

55:                                               ; preds = %14
  %.not47 = icmp eq i64 %17, -1
  br i1 %.not47, label %57, label %.thread99

.thread99:                                        ; preds = %.thread82, %.thread82.thread92, %.thread82.thread94, %49, %55
  %56 = call i32 @H5Dclose(i64 noundef %17) #7
  br label %57

57:                                               ; preds = %.thread99, %55
  call void @free(ptr noundef nonnull %12) #7
  br label %.thread87

.thread87:                                        ; preds = %11, %8, %2, %57, %44, %47
  %.033 = phi i64 [ -1, %47 ], [ %43, %44 ], [ -1, %57 ], [ -1, %2 ], [ -1, %8 ], [ -1, %11 ]
  call void @llvm.lifetime.end.p0(i64 8, ptr nonnull %3) #7
  ret i64 %.033
}